target datalayout = "e-m:e-p270:32:32-p271:32:32-p272:64:64-i64:64-i128:128-f80:128-n8:16:32:64-S128"
target triple = "x86_64-pc-linux-gnu"

%struct.strbuf = type { i64, i64, ptr }

@.str.31 = private unnamed_addr constant [14 x i8] c"fsck.skiplist\00", align 1
@__const.git_fsck_config.sb = private unnamed_addr constant %struct.strbuf { i64 0, i64 0, ptr @strbuf_slopbuf }, align 8
@.str.32 = private unnamed_addr constant [12 x i8] c"skiplist=%s\00", align 1
@.str.33 = private unnamed_addr constant [6 x i8] c"fsck.\00", align 1

; Function Attrs: inlinehint nounwind uwtable
define internal i32 @const_error() #2 {
  ret i32 -1
}

; Function Attrs: inlinehint nounwind uwtable
define internal zeroext i1 @skip_prefix(ptr noundef %0, ptr noundef %1, ptr noundef %2) #2 {
  %4 = alloca i1, align 1
  %5 = alloca ptr, align 8
  %6 = alloca ptr, align 8
  %7 = alloca ptr, align 8
  store ptr %0, ptr %5, align 8, !tbaa !9
  store ptr %1, ptr %6, align 8, !tbaa !9
  store ptr %2, ptr %7, align 8, !tbaa !117
  br label %8

8:                                                ; preds = %16, %3
  %9 = load ptr, ptr %6, align 8, !tbaa !9
  %10 = load i8, ptr %9, align 1, !tbaa !19
  %11 = icmp ne i8 %10, 0
  br i1 %11, label %15, label %12

12:                                               ; preds = %8
  %13 = load ptr, ptr %5, align 8, !tbaa !9
  %14 = load ptr, ptr %7, align 8, !tbaa !117
  store ptr %13, ptr %14, align 8, !tbaa !9
  store i1 true, ptr %4, align 1
  br label %27

15:                                               ; preds = %8
  br label %16

16:                                               ; preds = %15
  %17 = load ptr, ptr %5, align 8, !tbaa !9
  %18 = getelementptr inbounds nuw i8, ptr %17, i32 1
  store ptr %18, ptr %5, align 8, !tbaa !9
  %19 = load i8, ptr %17, align 1, !tbaa !19
  %20 = sext i8 %19 to i32
  %21 = load ptr, ptr %6, align 8, !tbaa !9
  %22 = getelementptr inbounds nuw i8, ptr %21, i32 1
  store ptr %22, ptr %6, align 8, !tbaa !9
  %23 = load i8, ptr %21, align 1, !tbaa !19
  %24 = sext i8 %23 to i32
  %25 = icmp eq i32 %20, %24
  br i1 %25, label %8, label %26, !llvm.loop !119

26:                                               ; preds = %16
  store i1 false, ptr %4, align 1
  br label %27

27:                                               ; preds = %26, %12
  %28 = load i1, ptr %4, align 1
  ret i1 %28
}

; Function Attrs: nounwind uwtable
define dso_local i32 @git_fsck_config(ptr noundef %0, ptr noundef %1, ptr noundef %2, ptr noundef %3) #0 {
  %5 = alloca i32, align 4
  %6 = alloca ptr, align 8
  %7 = alloca ptr, align 8
  %8 = alloca ptr, align 8
  %9 = alloca ptr, align 8
  %10 = alloca ptr, align 8
  %11 = alloca ptr, align 8
  %12 = alloca ptr, align 8
  %13 = alloca %struct.strbuf, align 8
  %14 = alloca i32, align 4
  store ptr %0, ptr %6, align 8, !tbaa !9
  store ptr %1, ptr %7, align 8, !tbaa !9
  store ptr %2, ptr %8, align 8, !tbaa !149
  store ptr %3, ptr %9, align 8, !tbaa !33
  call void @llvm.lifetime.start.p0(i64 8, ptr %10) #11
  %15 = load ptr, ptr %9, align 8, !tbaa !33
  store ptr %15, ptr %10, align 8, !tbaa !24
  call void @llvm.lifetime.start.p0(i64 8, ptr %11) #11
  %16 = load ptr, ptr %6, align 8, !tbaa !9
  %17 = call i32 @strcmp(ptr noundef %16, ptr noundef @.str.31) #12
  %18 = icmp eq i32 %17, 0
  br i1 %18, label %19, label %32

19:                                               ; preds = %4
  call void @llvm.lifetime.start.p0(i64 8, ptr %12) #11
  call void @llvm.lifetime.start.p0(i64 24, ptr %13) #11
  call void @llvm.memcpy.p0.p0.i64(ptr align 8 %13, ptr align 8 @__const.git_fsck_config.sb, i64 24, i1 false)
  %20 = load ptr, ptr %6, align 8, !tbaa !9
  %21 = load ptr, ptr %7, align 8, !tbaa !9
  %22 = call i32 @git_config_pathname(ptr noundef %12, ptr noundef %20, ptr noundef %21)
  %23 = icmp ne i32 %22, 0
  br i1 %23, label %24, label %25

24:                                               ; preds = %19
  store i32 -1, ptr %5, align 4
  store i32 1, ptr %14, align 4
  br label %31

25:                                               ; preds = %19
  %26 = load ptr, ptr %12, align 8, !tbaa !9
  call void (ptr, ptr, ...) @strbuf_addf(ptr noundef %13, ptr noundef @.str.32, ptr noundef %26)
  %27 = load ptr, ptr %12, align 8, !tbaa !9
  call void @free(ptr noundef %27) #11
  %28 = load ptr, ptr %10, align 8, !tbaa !24
  %29 = getelementptr inbounds nuw %struct.strbuf, ptr %13, i32 0, i32 2
  %30 = load ptr, ptr %29, align 8, !tbaa !66
  call void @fsck_set_msg_types(ptr noundef %28, ptr noundef %30)
  call void @strbuf_release(ptr noundef %13)
  store i32 0, ptr %5, align 4
  store i32 1, ptr %14, align 4
  br label %31

31:                                               ; preds = %25, %24
  call void @llvm.lifetime.end.p0(i64 24, ptr %13) #11
  call void @llvm.lifetime.end.p0(i64 8, ptr %12) #11
  br label %52

32:                                               ; preds = %4
  %33 = load ptr, ptr %6, align 8, !tbaa !9
  %34 = call zeroext i1 @skip_prefix(ptr noundef %33, ptr noundef @.str.33, ptr noundef %11)
  br i1 %34, label %35, label %46

35:                                               ; preds = %32
  %36 = load ptr, ptr %7, align 8, !tbaa !9
  %37 = icmp ne ptr %36, null
  br i1 %37, label %42, label %38

38:                                               ; preds = %35
  %39 = load ptr, ptr %6, align 8, !tbaa !9
  %40 = call i32 @config_error_nonbool(ptr noundef %39)
  %41 = call i32 @const_error()
  store i32 %41, ptr %5, align 4
  store i32 1, ptr %14, align 4
  br label %52

42:                                               ; preds = %35
  %43 = load ptr, ptr %10, align 8, !tbaa !24
  %44 = load ptr, ptr %11, align 8, !tbaa !9
  %45 = load ptr, ptr %7, align 8, !tbaa !9
  call void @fsck_set_msg_type(ptr noundef %43, ptr noundef %44, ptr noundef %45)
  store i32 0, ptr %5, align 4
  store i32 1, ptr %14, align 4
  br label %52

46:                                               ; preds = %32
  %47 = load ptr, ptr %6, align 8, !tbaa !9
  %48 = load ptr, ptr %7, align 8, !tbaa !9
  %49 = load ptr, ptr %8, align 8, !tbaa !149
  %50 = load ptr, ptr %9, align 8, !tbaa !33
  %51 = call i32 @git_default_config(ptr noundef %47, ptr noundef %48, ptr noundef %49, ptr noundef %50)
  store i32 %51, ptr %5, align 4
  store i32 1, ptr %14, align 4
  br label %52

52:                                               ; preds = %46, %42, %38, %31
  call void @llvm.lifetime.end.p0(i64 8, ptr %11) #11
  call void @llvm.lifetime.end.p0(i64 8, ptr %10) #11
  %53 = load i32, ptr %5, align 4
  ret i32 %53
}