; Function Attrs: nounwind uwtable
define dso_local i32 @git_fsck_config(ptr noundef %0, ptr noundef %1, ptr noundef %2, ptr noundef %3) local_unnamed_addr #0 {
  %5 = alloca ptr, align 8
  %6 = alloca %struct.strbuf, align 8
  %7 = tail call i32 @strcmp(ptr noundef nonnull dereferenceable(1) %0, ptr noundef nonnull dereferenceable(14) @.str.31) #17
  %8 = icmp eq i32 %7, 0
  br i1 %8, label %9, label %.preheader.preheader

.preheader.preheader:                             ; preds = %4
  %scevgep = getelementptr i8, ptr %0, i64 5
  br label %.preheader

9:                                                ; preds = %4
  call void @llvm.lifetime.start.p0(i64 8, ptr nonnull %5) #16
  call void @llvm.lifetime.start.p0(i64 24, ptr nonnull %6) #16
  call void @llvm.memcpy.p0.p0.i64(ptr noundef nonnull align 8 dereferenceable(24) %6, ptr noundef nonnull align 8 dereferenceable(24) @__const.fsck_vreport.sb, i64 24, i1 false)
  %10 = call i32 @git_config_pathname(ptr noundef nonnull %5, ptr noundef nonnull %0, ptr noundef %1) #16
  %.not15 = icmp eq i32 %10, 0
  br i1 %.not15, label %11, label %16

11:                                               ; preds = %9
  %12 = load ptr, ptr %5, align 8, !tbaa !98
  call void (ptr, ptr, ...) @strbuf_addf(ptr noundef nonnull %6, ptr noundef nonnull @.str.32, ptr noundef %12) #16
  %13 = load ptr, ptr %5, align 8, !tbaa !98
  call void @free(ptr noundef %13) #16
  %14 = getelementptr inbounds nuw i8, ptr %6, i64 16
  %15 = load ptr, ptr %14, align 8, !tbaa !55
  call void @fsck_set_msg_types(ptr noundef %3, ptr noundef %15)
  call void @strbuf_release(ptr noundef nonnull %6) #16
  br label %16

16:                                               ; preds = %9, %11
  %.0 = phi i32 [ 0, %11 ], [ -1, %9 ]
  call void @llvm.lifetime.end.p0(i64 24, ptr nonnull %6) #16
  call void @llvm.lifetime.end.p0(i64 8, ptr nonnull %5) #16
  br label %27

.preheader:                                       ; preds = %.preheader.preheader, %17
  %.07.i = phi ptr [ %19, %17 ], [ %0, %.preheader.preheader ]
  %.06.i.idx = phi i64 [ %.06.i.add, %17 ], [ 0, %.preheader.preheader ]
  %exitcond = icmp eq i64 %.06.i.idx, 5
  br i1 %exitcond, label %22, label %17

17:                                               ; preds = %.preheader
  %.06.i.ptr = getelementptr inbounds nuw i8, ptr @.str.33, i64 %.06.i.idx
  %18 = load i8, ptr %.06.i.ptr, align 1, !tbaa !15
  %19 = getelementptr inbounds nuw i8, ptr %.07.i, i64 1
  %20 = load i8, ptr %.07.i, align 1, !tbaa !15
  %.06.i.add = add nuw nsw i64 %.06.i.idx, 1
  %21 = icmp eq i8 %20, %18
  br i1 %21, label %.preheader, label %skip_prefix.exit, !llvm.loop !97

22:                                               ; preds = %.preheader
  %.not = icmp eq ptr %1, null
  br i1 %.not, label %23, label %25

23:                                               ; preds = %22
  %24 = tail call i32 @config_error_nonbool(ptr noundef nonnull %0) #16
  br label %27

25:                                               ; preds = %22
  tail call void @fsck_set_msg_type(ptr noundef %3, ptr noundef nonnull %scevgep, ptr noundef nonnull %1)
  br label %27

skip_prefix.exit:                                 ; preds = %17
  %26 = tail call i32 @git_default_config(ptr noundef nonnull %0, ptr noundef %1, ptr noundef %2, ptr noundef %3) #16
  br label %27

27:                                               ; preds = %skip_prefix.exit, %25, %23, %16
  %.1 = phi i32 [ %.0, %16 ], [ 0, %25 ], [ -1, %23 ], [ %26, %skip_prefix.exit ]
  ret i32 %.1
}